; Function Attrs: mustprogress uwtable
define noundef ptr @_ZN8tinyxml211XMLDocument7NewTextEPKc(ptr noundef nonnull align 8 dereferenceable(776) %0, ptr noundef readonly captures(none) %1) local_unnamed_addr #4 align 2 {
  %3 = getelementptr inbounds nuw i8, ptr %0, i64 520
  %4 = load ptr, ptr %3, align 8, !tbaa !63
  %5 = getelementptr inbounds nuw i8, ptr %4, i64 24
  %6 = load ptr, ptr %5, align 8
  %7 = tail call noundef ptr %6(ptr noundef nonnull align 8 dereferenceable(128) %3)
  %8 = getelementptr inbounds nuw i8, ptr %7, i64 8
  store ptr %0, ptr %8, align 8, !tbaa !71
  %9 = getelementptr inbounds nuw i8, ptr %7, i64 16
  store ptr null, ptr %9, align 8, !tbaa !72
  %10 = getelementptr inbounds nuw i8, ptr %7, i64 24
  store i32 0, ptr %10, align 8, !tbaa !3
  %11 = getelementptr inbounds nuw i8, ptr %7, i64 32
  %12 = getelementptr inbounds nuw i8, ptr %7, i64 56
  tail call void @llvm.memset.p0.i64(ptr noundef nonnull align 8 dereferenceable(20) %11, i8 0, i64 20, i1 false)
  tail call void @llvm.memset.p0.i64(ptr noundef nonnull align 8 dereferenceable(48) %12, i8 0, i64 40, i1 false)
  store ptr getelementptr inbounds nuw inrange(-16, 144) (i8, ptr @_ZTVN8tinyxml27XMLTextE, i64 16), ptr %7, align 8, !tbaa !63
  %13 = getelementptr inbounds nuw i8, ptr %7, i64 104
  store i8 0, ptr %13, align 8, !tbaa !73
  %14 = getelementptr inbounds nuw i8, ptr %7, i64 96
  store ptr %3, ptr %14, align 8, !tbaa !65
  %15 = getelementptr inbounds nuw i8, ptr %0, i64 168
  %16 = getelementptr inbounds nuw i8, ptr %0, i64 260
  %17 = load i32, ptr %16, align 4, !tbaa !66
  %18 = getelementptr inbounds nuw i8, ptr %0, i64 256
  %19 = load i32, ptr %18, align 8, !tbaa !67
  %.not.i.i = icmp slt i32 %17, %19
  br i1 %.not.i.i, label %_ZN8tinyxml211XMLDocument18CreateUnlinkedNodeINS_7XMLTextELi112EEEPT_RNS_8MemPoolTIXT0_EEE.exit.thread, label %23

_ZN8tinyxml211XMLDocument18CreateUnlinkedNodeINS_7XMLTextELi112EEEPT_RNS_8MemPoolTIXT0_EEE.exit.thread: ; preds = %2
  %.pre.i.i = load ptr, ptr %15, align 8, !tbaa !68
  %20 = sext i32 %17 to i64
  %21 = getelementptr inbounds ptr, ptr %.pre.i.i, i64 %20
  store ptr %7, ptr %21, align 8, !tbaa !69
  %22 = add nsw i32 %17, 1
  store i32 %22, ptr %16, align 4, !tbaa !66
  br label %_ZN8tinyxml27XMLNode8SetValueEPKcb.exit

23:                                               ; preds = %2
  %24 = shl i32 %17, 1
  %25 = add i32 %24, 2
  %26 = sext i32 %25 to i64
  %27 = icmp slt i32 %17, -1
  %28 = shl nsw i64 %26, 3
  %29 = select i1 %27, i64 -1, i64 %28
  %30 = tail call noalias noundef nonnull ptr @_Znam(i64 noundef %29) #34
  %31 = load ptr, ptr %15, align 8, !tbaa !68
  %32 = sext i32 %17 to i64
  %33 = shl nsw i64 %32, 3
  tail call void @llvm.memcpy.p0.p0.i64(ptr nonnull align 8 %30, ptr align 8 %31, i64 %33, i1 false)
  %34 = getelementptr inbounds nuw i8, ptr %0, i64 176
  %.not.i.i.i = icmp eq ptr %31, %34
  %35 = icmp eq ptr %31, null
  %or.cond.i.i.i = or i1 %.not.i.i.i, %35
  br i1 %or.cond.i.i.i, label %_ZN8tinyxml211XMLDocument18CreateUnlinkedNodeINS_7XMLTextELi112EEEPT_RNS_8MemPoolTIXT0_EEE.exit.thread7, label %_ZN8tinyxml211XMLDocument18CreateUnlinkedNodeINS_7XMLTextELi112EEEPT_RNS_8MemPoolTIXT0_EEE.exit

_ZN8tinyxml211XMLDocument18CreateUnlinkedNodeINS_7XMLTextELi112EEEPT_RNS_8MemPoolTIXT0_EEE.exit.thread7: ; preds = %23
  store ptr %30, ptr %15, align 8, !tbaa !68
  store i32 %25, ptr %18, align 8, !tbaa !67
  %36 = sext i32 %17 to i64
  %37 = getelementptr inbounds ptr, ptr %30, i64 %36
  store ptr %7, ptr %37, align 8, !tbaa !69
  %38 = add nsw i32 %17, 1
  store i32 %38, ptr %16, align 4, !tbaa !66
  br label %_ZN8tinyxml27XMLNode8SetValueEPKcb.exit

_ZN8tinyxml211XMLDocument18CreateUnlinkedNodeINS_7XMLTextELi112EEEPT_RNS_8MemPoolTIXT0_EEE.exit: ; preds = %23
  tail call void @_ZdaPv(ptr noundef nonnull %31) #30
  %.pre2.pre.i.i = load i32, ptr %16, align 4, !tbaa !66
  %.pre.pre = load i32, ptr %10, align 8, !tbaa !3
  %39 = and i32 %.pre.pre, 512
  %40 = icmp eq i32 %39, 0
  store ptr %30, ptr %15, align 8, !tbaa !68
  store i32 %25, ptr %18, align 8, !tbaa !67
  %41 = sext i32 %.pre2.pre.i.i to i64
  %42 = getelementptr inbounds ptr, ptr %30, i64 %41
  store ptr %7, ptr %42, align 8, !tbaa !69
  %43 = add nsw i32 %.pre2.pre.i.i, 1
  store i32 %43, ptr %16, align 4, !tbaa !66
  br i1 %40, label %_ZN8tinyxml27XMLNode8SetValueEPKcb.exit, label %44

44:                                               ; preds = %_ZN8tinyxml211XMLDocument18CreateUnlinkedNodeINS_7XMLTextELi112EEEPT_RNS_8MemPoolTIXT0_EEE.exit
  %45 = load ptr, ptr %11, align 8, !tbaa !10
  %46 = icmp eq ptr %45, null
  br i1 %46, label %_ZN8tinyxml27XMLNode8SetValueEPKcb.exit, label %47

47:                                               ; preds = %44
  tail call void @_ZdaPv(ptr noundef nonnull %45) #30
  br label %_ZN8tinyxml27XMLNode8SetValueEPKcb.exit

_ZN8tinyxml27XMLNode8SetValueEPKcb.exit:          ; preds = %_ZN8tinyxml211XMLDocument18CreateUnlinkedNodeINS_7XMLTextELi112EEEPT_RNS_8MemPoolTIXT0_EEE.exit.thread7, %_ZN8tinyxml211XMLDocument18CreateUnlinkedNodeINS_7XMLTextELi112EEEPT_RNS_8MemPoolTIXT0_EEE.exit.thread, %_ZN8tinyxml211XMLDocument18CreateUnlinkedNodeINS_7XMLTextELi112EEEPT_RNS_8MemPoolTIXT0_EEE.exit, %44, %47
  store i32 0, ptr %10, align 8, !tbaa !3
  tail call void @llvm.memset.p0.i64(ptr noundef nonnull align 8 dereferenceable(16) %11, i8 0, i64 16, i1 false)
  %48 = tail call i64 @strlen(ptr noundef nonnull readonly dereferenceable(1) %1) #33
  %49 = add i64 %48, 1
  %50 = tail call noalias noundef nonnull ptr @_Znam(i64 noundef %49) #34
  store ptr %50, ptr %11, align 8, !tbaa !10
  tail call void @llvm.memcpy.p0.p0.i64(ptr nonnull align 1 %50, ptr nonnull readonly align 1 %1, i64 %49, i1 false)
  %51 = getelementptr inbounds nuw i8, ptr %50, i64 %48
  %52 = getelementptr inbounds nuw i8, ptr %7, i64 40
  store ptr %51, ptr %52, align 8, !tbaa !11
  store i32 512, ptr %10, align 8, !tbaa !3
  ret ptr %7
}